target datalayout = "e-m:e-p270:32:32-p271:32:32-p272:64:64-i64:64-i128:128-f80:128-n8:16:32:64-S128"
target triple = "x86_64-pc-linux-gnu"

%struct._asn1_ctx_t = type { i32, i32, i8, ptr, ptr, ptr, ptr, ptr, %struct.anon, %struct.anon.2, %struct.anon.3, ptr }
%struct.anon = type { i32, i8, i8, i8, ptr, ptr, i32, i32, ptr, ptr, ptr, %union.anon }
%union.anon = type { %struct.anon.0 }
%struct.anon.0 = type { ptr }
%struct.anon.2 = type { ptr, ptr, ptr }
%struct.anon.3 = type { i32, i8, ptr, i32, i32, ptr, ptr, ptr, %union.anon.4 }
%union.anon.4 = type { %struct.anon.5 }
%struct.anon.5 = type { ptr }
%struct._packet_info = type { ptr, ptr, i32, i32, %struct.nstime_t, %struct.nstime_t, %struct.nstime_t, i8, ptr, ptr, ptr, ptr, %struct._address, %struct._address, %struct._address, %struct._address, %struct._address, %struct._address, i32, ptr, i8, [3 x i8], %struct.anon.7, i32, i32, i32, i32, ptr, i8, ptr, ptr, i16, i16, i32, i32, i16, i32, i32, ptr, ptr, ptr, i8, i8, i16, i16, i16, i32, i16, i16, ptr, ptr, ptr, ptr, ptr, i32, i32 }
%struct.nstime_t = type { i64, i32 }
%struct._address = type { i32, i32, ptr, ptr }
%struct.anon.7 = type { i8, [3 x i8] }
%struct._h245_packet_info = type { i32, [50 x i8], [50 x i8] }

@h245_pi = hidden global ptr null, align 8
@ett_h245_ResponseMessage = internal global i32 0, align 4
@h245_shorttypes = internal global i8 0, align 1
@info_col_fmt_prepend = internal global i8 0, align 1
@.str.2977 = private unnamed_addr constant [10 x i8] c"<unknown>\00", align 1
@.str.3052 = private unnamed_addr constant [3 x i8] c"%s\00", align 1
@.str.3230 = private unnamed_addr constant [4 x i8] c"UKN\00", align 1
@.str.3268 = private unnamed_addr constant [4 x i8] c"%s \00", align 1

; Function Attrs: null_pointer_is_valid sspstrong uwtable
define internal void @print_info_column(ptr noundef %0, ptr noundef %1, ptr noundef %2, ptr noundef %3) #1 {
  %5 = alloca ptr, align 8
  %6 = alloca ptr, align 8
  %7 = alloca ptr, align 8
  %8 = alloca ptr, align 8
  %9 = alloca ptr, align 8
  store ptr %0, ptr %5, align 8
  store ptr %1, ptr %6, align 8
  store ptr %2, ptr %7, align 8
  store ptr %3, ptr %8, align 8
  call void @llvm.lifetime.start.p0(i64 8, ptr %9) #12
  %10 = load i8, ptr @h245_shorttypes, align 1, !range !6, !noundef !7
  %11 = trunc i8 %10 to i1
  %12 = zext i1 %11 to i32
  %13 = icmp eq i32 %12, 0
  br i1 %13, label %17, label %14

14:                                               ; preds = %4
  %15 = load ptr, ptr %8, align 8
  %16 = icmp eq ptr %15, null
  br i1 %16, label %17, label %19

17:                                               ; preds = %14, %4
  %18 = load ptr, ptr %7, align 8
  store ptr %18, ptr %9, align 8
  br label %21

19:                                               ; preds = %14
  %20 = load ptr, ptr %8, align 8
  store ptr %20, ptr %9, align 8
  br label %21

21:                                               ; preds = %19, %17
  %22 = load i8, ptr @info_col_fmt_prepend, align 1, !range !6, !noundef !7
  %23 = trunc i8 %22 to i1
  %24 = zext i1 %23 to i32
  %25 = icmp eq i32 %24, 0
  br i1 %25, label %26, label %32

26:                                               ; preds = %21
  %27 = load ptr, ptr %5, align 8
  %28 = load ptr, ptr %6, align 8
  %29 = load i32, ptr %28, align 4
  %30 = load ptr, ptr %9, align 8
  %31 = call ptr @val_to_str_const(i32 noundef %29, ptr noundef %30, ptr noundef @.str.2977)
  call void (ptr, i32, ptr, ...) @col_append_fstr(ptr noundef %27, i32 noundef 25, ptr noundef @.str.3268, ptr noundef %31)
  br label %38

32:                                               ; preds = %21
  %33 = load ptr, ptr %5, align 8
  %34 = load ptr, ptr %6, align 8
  %35 = load i32, ptr %34, align 4
  %36 = load ptr, ptr %9, align 8
  %37 = call ptr @val_to_str_const(i32 noundef %35, ptr noundef %36, ptr noundef @.str.2977)
  call void (ptr, i32, ptr, ...) @col_prepend_fstr(ptr noundef %33, i32 noundef 25, ptr noundef @.str.3268, ptr noundef %37)
  br label %38

38:                                               ; preds = %32, %26
  call void @llvm.lifetime.end.p0(i64 8, ptr %9) #12
  ret void
}

; Function Attrs: null_pointer_is_valid sspstrong uwtable
define internal i32 @dissect_h245_ResponseMessage(ptr noundef %0, i32 noundef %1, ptr noundef %2, ptr noundef %3, i32 noundef %4) #1 {
  %6 = alloca ptr, align 8
  %7 = alloca i32, align 4
  %8 = alloca ptr, align 8
  %9 = alloca ptr, align 8
  %10 = alloca i32, align 4
  %11 = alloca i32, align 4
  store ptr %0, ptr %6, align 8
  store i32 %1, ptr %7, align 4
  store ptr %2, ptr %8, align 8
  store ptr %3, ptr %9, align 8
  store i32 %4, ptr %10, align 4
  call void @llvm.lifetime.start.p0(i64 4, ptr %11) #12
  %12 = load ptr, ptr %6, align 8
  %13 = load i32, ptr %7, align 4
  %14 = load ptr, ptr %8, align 8
  %15 = load ptr, ptr %9, align 8
  %16 = load i32, ptr %10, align 4
  %17 = load i32, ptr @ett_h245_ResponseMessage, align 4
  %18 = call i32 @dissect_per_choice(ptr noundef %12, i32 noundef %13, ptr noundef %14, ptr noundef %15, i32 noundef %16, i32 noundef %17, ptr noundef @ResponseMessage_choice, ptr noundef %11)
  store i32 %18, ptr %7, align 4
  %19 = load ptr, ptr %8, align 8
  %20 = getelementptr inbounds nuw %struct._asn1_ctx_t, ptr %19, i32 0, i32 3
  %21 = load ptr, ptr %20, align 8
  %22 = getelementptr inbounds nuw %struct._packet_info, ptr %21, i32 0, i32 1
  %23 = load ptr, ptr %22, align 8
  call void @print_info_column(ptr noundef %23, ptr noundef %11, ptr noundef @h245_ResponseMessage_vals, ptr noundef @h245_ResponseMessage_short_vals)
  %24 = load ptr, ptr %8, align 8
  %25 = getelementptr inbounds nuw %struct._asn1_ctx_t, ptr %24, i32 0, i32 3
  %26 = load ptr, ptr %25, align 8
  %27 = getelementptr inbounds nuw %struct._packet_info, ptr %26, i32 0, i32 1
  %28 = load ptr, ptr %27, align 8
  call void @col_set_fence(ptr noundef %28, i32 noundef 25)
  %29 = load ptr, ptr @h245_pi, align 8
  %30 = icmp ne ptr %29, null
  br i1 %30, label %31, label %51

31:                                               ; preds = %5
  %32 = load ptr, ptr @h245_pi, align 8
  %33 = getelementptr inbounds nuw %struct._h245_packet_info, ptr %32, i32 0, i32 1
  %34 = getelementptr inbounds [50 x i8], ptr %33, i64 0, i64 0
  %35 = call i64 @strlen(ptr noundef %34) #14
  %36 = icmp eq i64 %35, 0
  br i1 %36, label %37, label %44

37:                                               ; preds = %31
  %38 = load ptr, ptr @h245_pi, align 8
  %39 = getelementptr inbounds nuw %struct._h245_packet_info, ptr %38, i32 0, i32 1
  %40 = getelementptr inbounds [50 x i8], ptr %39, i64 0, i64 0
  %41 = load i32, ptr %11, align 4
  %42 = call ptr @val_to_str_const(i32 noundef %41, ptr noundef @h245_ResponseMessage_short_vals, ptr noundef @.str.3230)
  %43 = call i32 (ptr, i64, i32, i64, ptr, ...) @__snprintf_chk(ptr noundef %40, i64 noundef 50, i32 noundef 2, i64 noundef 50, ptr noundef @.str.3052, ptr noundef %42)
  br label %44

44:                                               ; preds = %37, %31
  %45 = load ptr, ptr @h245_pi, align 8
  %46 = getelementptr inbounds nuw %struct._h245_packet_info, ptr %45, i32 0, i32 2
  %47 = getelementptr inbounds [50 x i8], ptr %46, i64 0, i64 0
  %48 = load i32, ptr %11, align 4
  %49 = call ptr @val_to_str_const(i32 noundef %48, ptr noundef @h245_ResponseMessage_vals, ptr noundef @.str.2977)
  %50 = call i64 @g_strlcat(ptr noundef %47, ptr noundef %49, i64 noundef 50)
  br label %51

51:                                               ; preds = %44, %5
  %52 = load i32, ptr %7, align 4
  call void @llvm.lifetime.end.p0(i64 4, ptr %11) #12
  ret i32 %52
}